target datalayout = "e-m:e-p270:32:32-p271:32:32-p272:64:64-i64:64-i128:128-f80:128-n8:16:32:64-S128"
target triple = "x86_64-pc-linux-gnu"

%struct.SDL_DialogFileFilter = type { ptr, ptr }

@.str = private unnamed_addr constant [53 x i8] c"Called convert_filters() with NULL filters (SDL bug)\00", align 1

; Function Attrs: nounwind uwtable
define hidden ptr @convert_filters(ptr noundef %0, i32 noundef %1, ptr noundef %2, ptr noundef %3, ptr noundef %4, ptr noundef %5, ptr noundef %6, ptr noundef %7, ptr noundef %8, ptr noundef %9, ptr noundef %10, ptr noundef %11) #0 {
  %13 = alloca ptr, align 8
  %14 = alloca ptr, align 8
  %15 = alloca i32, align 4
  %16 = alloca ptr, align 8
  %17 = alloca ptr, align 8
  %18 = alloca ptr, align 8
  %19 = alloca ptr, align 8
  %20 = alloca ptr, align 8
  %21 = alloca ptr, align 8
  %22 = alloca ptr, align 8
  %23 = alloca ptr, align 8
  %24 = alloca ptr, align 8
  %25 = alloca ptr, align 8
  %26 = alloca ptr, align 8
  %27 = alloca ptr, align 8
  %28 = alloca ptr, align 8
  %29 = alloca ptr, align 8
  %30 = alloca i64, align 8
  %31 = alloca i32, align 4
  %32 = alloca i32, align 4
  %33 = alloca ptr, align 8
  store ptr %0, ptr %14, align 8
  store i32 %1, ptr %15, align 4
  store ptr %2, ptr %16, align 8
  store ptr %3, ptr %17, align 8
  store ptr %4, ptr %18, align 8
  store ptr %5, ptr %19, align 8
  store ptr %6, ptr %20, align 8
  store ptr %7, ptr %21, align 8
  store ptr %8, ptr %22, align 8
  store ptr %9, ptr %23, align 8
  store ptr %10, ptr %24, align 8
  store ptr %11, ptr %25, align 8
  call void @llvm.lifetime.start.p0(i64 8, ptr %26) #4
  call void @llvm.lifetime.start.p0(i64 8, ptr %27) #4
  call void @llvm.lifetime.start.p0(i64 8, ptr %28) #4
  call void @llvm.lifetime.start.p0(i64 8, ptr %29) #4
  call void @llvm.lifetime.start.p0(i64 8, ptr %30) #4
  call void @llvm.lifetime.start.p0(i64 4, ptr %31) #4
  %34 = load ptr, ptr %14, align 8
  %35 = icmp ne ptr %34, null
  br i1 %35, label %38, label %36

36:                                               ; preds = %12
  %37 = call zeroext i1 (ptr, ...) @SDL_SetError_REAL(ptr noundef @.str)
  store ptr null, ptr %13, align 8
  store i32 1, ptr %32, align 4
  br label %137

38:                                               ; preds = %12
  %39 = load ptr, ptr %17, align 8
  %40 = call noalias ptr @SDL_strdup_REAL(ptr noundef %39)
  store ptr %40, ptr %26, align 8
  %41 = load ptr, ptr %26, align 8
  %42 = icmp ne ptr %41, null
  br i1 %42, label %44, label %43

43:                                               ; preds = %38
  store ptr null, ptr %13, align 8
  store i32 1, ptr %32, align 4
  br label %137

44:                                               ; preds = %38
  store i32 0, ptr %31, align 4
  br label %45

45:                                               ; preds = %113, %44
  %46 = load i32, ptr %31, align 4
  %47 = load i32, ptr %15, align 4
  %48 = icmp slt i32 %46, %47
  br i1 %48, label %49, label %116

49:                                               ; preds = %45
  call void @llvm.lifetime.start.p0(i64 8, ptr %33) #4
  %50 = load ptr, ptr %14, align 8
  %51 = load i32, ptr %31, align 4
  %52 = sext i32 %51 to i64
  %53 = getelementptr inbounds %struct.SDL_DialogFileFilter, ptr %50, i64 %52
  store ptr %53, ptr %33, align 8
  %54 = load ptr, ptr %33, align 8
  %55 = load ptr, ptr %16, align 8
  %56 = load ptr, ptr %20, align 8
  %57 = load ptr, ptr %21, align 8
  %58 = load ptr, ptr %22, align 8
  %59 = load ptr, ptr %23, align 8
  %60 = load ptr, ptr %24, align 8
  %61 = load ptr, ptr %25, align 8
  %62 = getelementptr inbounds nuw { ptr, ptr }, ptr %54, i32 0, i32 0
  %63 = load ptr, ptr %62, align 8
  %64 = getelementptr inbounds nuw { ptr, ptr }, ptr %54, i32 0, i32 1
  %65 = load ptr, ptr %64, align 8
  %66 = call ptr @convert_filter(ptr %63, ptr %65, ptr noundef %55, ptr noundef %56, ptr noundef %57, ptr noundef %58, ptr noundef %59, ptr noundef %60, ptr noundef %61)
  store ptr %66, ptr %28, align 8
  %67 = load ptr, ptr %28, align 8
  %68 = icmp ne ptr %67, null
  br i1 %68, label %71, label %69

69:                                               ; preds = %49
  %70 = load ptr, ptr %26, align 8
  call void @SDL_free_REAL(ptr noundef %70)
  store ptr null, ptr %13, align 8
  store i32 1, ptr %32, align 4
  br label %110

71:                                               ; preds = %49
  %72 = load i32, ptr %31, align 4
  %73 = add nsw i32 %72, 1
  %74 = load i32, ptr %15, align 4
  %75 = icmp slt i32 %73, %74
  br i1 %75, label %76, label %78

76:                                               ; preds = %71
  %77 = load ptr, ptr %18, align 8
  br label %80

78:                                               ; preds = %71
  %79 = load ptr, ptr %19, align 8
  br label %80

80:                                               ; preds = %78, %76
  %81 = phi ptr [ %77, %76 ], [ %79, %78 ]
  store ptr %81, ptr %29, align 8
  %82 = load ptr, ptr %26, align 8
  %83 = call i64 @SDL_strlen_REAL(ptr noundef %82)
  %84 = load ptr, ptr %28, align 8
  %85 = call i64 @SDL_strlen_REAL(ptr noundef %84)
  %86 = add i64 %83, %85
  %87 = load ptr, ptr %29, align 8
  %88 = call i64 @SDL_strlen_REAL(ptr noundef %87)
  %89 = add i64 %86, %88
  %90 = add i64 %89, 1
  store i64 %90, ptr %30, align 8
  %91 = load ptr, ptr %26, align 8
  %92 = load i64, ptr %30, align 8
  %93 = call ptr @SDL_realloc_REAL(ptr noundef %91, i64 noundef %92) #5
  store ptr %93, ptr %27, align 8
  %94 = load ptr, ptr %27, align 8
  %95 = icmp ne ptr %94, null
  br i1 %95, label %99, label %96

96:                                               ; preds = %80
  %97 = load ptr, ptr %28, align 8
  call void @SDL_free_REAL(ptr noundef %97)
  %98 = load ptr, ptr %26, align 8
  call void @SDL_free_REAL(ptr noundef %98)
  store ptr null, ptr %13, align 8
  store i32 1, ptr %32, align 4
  br label %110

99:                                               ; preds = %80
  %100 = load ptr, ptr %27, align 8
  store ptr %100, ptr %26, align 8
  %101 = load ptr, ptr %26, align 8
  %102 = load ptr, ptr %28, align 8
  %103 = load i64, ptr %30, align 8
  %104 = call i64 @SDL_strlcat_REAL(ptr noundef %101, ptr noundef %102, i64 noundef %103)
  %105 = load ptr, ptr %26, align 8
  %106 = load ptr, ptr %29, align 8
  %107 = load i64, ptr %30, align 8
  %108 = call i64 @SDL_strlcat_REAL(ptr noundef %105, ptr noundef %106, i64 noundef %107)
  %109 = load ptr, ptr %28, align 8
  call void @SDL_free_REAL(ptr noundef %109)
  store i32 0, ptr %32, align 4
  br label %110

110:                                              ; preds = %99, %96, %69
  call void @llvm.lifetime.end.p0(i64 8, ptr %33) #4
  %111 = load i32, ptr %32, align 4
  switch i32 %111, label %137 [
    i32 0, label %112
  ]

112:                                              ; preds = %110
  br label %113

113:                                              ; preds = %112
  %114 = load i32, ptr %31, align 4
  %115 = add nsw i32 %114, 1
  store i32 %115, ptr %31, align 4
  br label %45, !llvm.loop !3

116:                                              ; preds = %45
  %117 = load ptr, ptr %26, align 8
  %118 = call i64 @SDL_strlen_REAL(ptr noundef %117)
  %119 = load ptr, ptr %19, align 8
  %120 = call i64 @SDL_strlen_REAL(ptr noundef %119)
  %121 = add i64 %118, %120
  %122 = add i64 %121, 1
  store i64 %122, ptr %30, align 8
  %123 = load ptr, ptr %26, align 8
  %124 = load i64, ptr %30, align 8
  %125 = call ptr @SDL_realloc_REAL(ptr noundef %123, i64 noundef %124) #5
  store ptr %125, ptr %27, align 8
  %126 = load ptr, ptr %27, align 8
  %127 = icmp ne ptr %126, null
  br i1 %127, label %130, label %128

128:                                              ; preds = %116
  %129 = load ptr, ptr %26, align 8
  call void @SDL_free_REAL(ptr noundef %129)
  store ptr null, ptr %13, align 8
  store i32 1, ptr %32, align 4
  br label %137

130:                                              ; preds = %116
  %131 = load ptr, ptr %27, align 8
  store ptr %131, ptr %26, align 8
  %132 = load ptr, ptr %26, align 8
  %133 = load ptr, ptr %19, align 8
  %134 = load i64, ptr %30, align 8
  %135 = call i64 @SDL_strlcat_REAL(ptr noundef %132, ptr noundef %133, i64 noundef %134)
  %136 = load ptr, ptr %26, align 8
  store ptr %136, ptr %13, align 8
  store i32 1, ptr %32, align 4
  br label %137

137:                                              ; preds = %130, %128, %110, %43, %36
  call void @llvm.lifetime.end.p0(i64 4, ptr %31) #4
  call void @llvm.lifetime.end.p0(i64 8, ptr %30) #4
  call void @llvm.lifetime.end.p0(i64 8, ptr %29) #4
  call void @llvm.lifetime.end.p0(i64 8, ptr %28) #4
  call void @llvm.lifetime.end.p0(i64 8, ptr %27) #4
  call void @llvm.lifetime.end.p0(i64 8, ptr %26) #4
  %138 = load ptr, ptr %13, align 8
  ret ptr %138
}