; Function Attrs: nounwind uwtable
define hidden ptr @convert_filters(ptr noundef readonly captures(address_is_null) %0, i32 noundef %1, ptr noundef readonly captures(address_is_null) %2, ptr noundef %3, ptr noundef %4, ptr noundef %5, ptr noundef %6, ptr noundef %7, ptr noundef %8, ptr noundef %9, ptr noundef %10, ptr noundef %11) local_unnamed_addr #0 {
  %.not = icmp eq ptr %0, null
  br i1 %.not, label %13, label %15

13:                                               ; preds = %12
  %14 = tail call zeroext i1 (ptr, ...) @SDL_SetError_REAL(ptr noundef nonnull @.str) #4
  br label %.thread

15:                                               ; preds = %12
  %16 = tail call noalias ptr @SDL_strdup_REAL(ptr noundef %3) #4
  %.not60 = icmp eq ptr %16, null
  br i1 %.not60, label %.thread, label %.preheader

.preheader:                                       ; preds = %15
  %17 = icmp sgt i32 %1, 0
  br i1 %17, label %.lr.ph.preheader, label %._crit_edge

.lr.ph.preheader:                                 ; preds = %.preheader
  %18 = zext nneg i32 %1 to i64
  %wide.trip.count = zext nneg i32 %1 to i64
  br label %.lr.ph

.lr.ph:                                           ; preds = %.lr.ph.preheader, %36
  %indvars.iv = phi i64 [ 0, %.lr.ph.preheader ], [ %indvars.iv.next, %36 ]
  %.05269 = phi ptr [ %16, %.lr.ph.preheader ], [ %34, %36 ]
  %19 = getelementptr inbounds nuw %struct.SDL_DialogFileFilter, ptr %0, i64 %indvars.iv
  %20 = load ptr, ptr %19, align 8
  %21 = getelementptr inbounds nuw i8, ptr %19, i64 8
  %22 = load ptr, ptr %21, align 8
  %23 = tail call ptr @convert_filter(ptr %20, ptr %22, ptr noundef %2, ptr noundef %6, ptr noundef %7, ptr noundef %8, ptr noundef %9, ptr noundef %10, ptr noundef %11)
  %.not62 = icmp eq ptr %23, null
  br i1 %.not62, label %24, label %25

24:                                               ; preds = %.lr.ph
  tail call void @SDL_free_REAL(ptr noundef nonnull %.05269) #4
  br label %.thread

25:                                               ; preds = %.lr.ph
  %indvars.iv.next = add nuw nsw i64 %indvars.iv, 1
  %26 = icmp samesign ult i64 %indvars.iv.next, %18
  %27 = select i1 %26, ptr %4, ptr %5
  %28 = tail call i64 @SDL_strlen_REAL(ptr noundef nonnull %.05269) #4
  %29 = tail call i64 @SDL_strlen_REAL(ptr noundef nonnull %23) #4
  %30 = tail call i64 @SDL_strlen_REAL(ptr noundef %27) #4
  %31 = add i64 %28, 1
  %32 = add i64 %31, %29
  %33 = add i64 %32, %30
  %34 = tail call ptr @SDL_realloc_REAL(ptr noundef nonnull %.05269, i64 noundef %33) #5
  %.not63 = icmp eq ptr %34, null
  br i1 %.not63, label %35, label %36

35:                                               ; preds = %25
  tail call void @SDL_free_REAL(ptr noundef nonnull %23) #4
  tail call void @SDL_free_REAL(ptr noundef nonnull %.05269) #4
  br label %.thread

36:                                               ; preds = %25
  %37 = tail call i64 @SDL_strlcat_REAL(ptr noundef nonnull %34, ptr noundef nonnull %23, i64 noundef %33) #4
  %38 = tail call i64 @SDL_strlcat_REAL(ptr noundef nonnull %34, ptr noundef %27, i64 noundef %33) #4
  tail call void @SDL_free_REAL(ptr noundef nonnull %23) #4
  %exitcond.not = icmp eq i64 %indvars.iv.next, %wide.trip.count
  br i1 %exitcond.not, label %._crit_edge, label %.lr.ph, !llvm.loop !3

._crit_edge:                                      ; preds = %36, %.preheader
  %.052.lcssa = phi ptr [ %16, %.preheader ], [ %34, %36 ]
  %39 = tail call i64 @SDL_strlen_REAL(ptr noundef nonnull %.052.lcssa) #4
  %40 = tail call i64 @SDL_strlen_REAL(ptr noundef %5) #4
  %41 = add i64 %39, 1
  %42 = add i64 %41, %40
  %43 = tail call ptr @SDL_realloc_REAL(ptr noundef nonnull %.052.lcssa, i64 noundef %42) #5
  %.not61 = icmp eq ptr %43, null
  br i1 %.not61, label %44, label %45

44:                                               ; preds = %._crit_edge
  tail call void @SDL_free_REAL(ptr noundef nonnull %.052.lcssa) #4
  br label %.thread

45:                                               ; preds = %._crit_edge
  %46 = tail call i64 @SDL_strlcat_REAL(ptr noundef nonnull %43, ptr noundef %5, i64 noundef %42) #4
  br label %.thread

.thread:                                          ; preds = %24, %35, %15, %45, %44, %13
  %.0 = phi ptr [ %43, %45 ], [ null, %44 ], [ null, %13 ], [ null, %15 ], [ null, %35 ], [ null, %24 ]
  ret ptr %.0
}